; Function Attrs: mustprogress uwtable
define void @_ZN3gmx8internal18BasicHistogramImplC2ERKNS_25AnalysisHistogramSettingsE(ptr noundef nonnull align 8 dereferenceable(56) %0, ptr noundef nonnull align 4 dereferenceable(21) %1) unnamed_addr #3 align 2 personality ptr @__gxx_personality_v0 {
  store ptr getelementptr inbounds inrange(-16, 16) ({ [4 x ptr] }, ptr @_ZTVN3gmx8internal18BasicHistogramImplE, i64 0, i32 0, i64 2), ptr %0, align 8
  %3 = getelementptr inbounds i8, ptr %0, i64 8
  tail call void @_ZN3gmx19AnalysisDataStorageC1Ev(ptr noundef nonnull align 8 dereferenceable(8) %3)
  %4 = getelementptr inbounds i8, ptr %0, i64 16
  tail call void @llvm.memcpy.p0.p0.i64(ptr noundef nonnull align 8 dereferenceable(24) %4, ptr noundef nonnull align 4 dereferenceable(24) %1, i64 24, i1 false)
  %5 = getelementptr inbounds i8, ptr %0, i64 40
  %6 = invoke noalias noundef nonnull dereferenceable(152) ptr @_Znwm(i64 noundef 152) #29
          to label %7 unwind label %28

7:                                                ; preds = %2
  invoke void @_ZN3gmx8internal27BasicAverageHistogramModuleC1ERKNS_25AnalysisHistogramSettingsE(ptr noundef nonnull align 8 dereferenceable(152) %6, ptr noundef nonnull align 4 dereferenceable(21) %1)
          to label %8 unwind label %30

8:                                                ; preds = %7
  store ptr %6, ptr %5, align 8
  %9 = getelementptr inbounds i8, ptr %0, i64 48
  store ptr null, ptr %9, align 8
  %10 = invoke noalias noundef nonnull dereferenceable(24) ptr @_Znwm(i64 noundef 24) #29
          to label %24 unwind label %11

11:                                               ; preds = %8
  %12 = landingpad { ptr, i32 }
          catch ptr null
  %13 = extractvalue { ptr, i32 } %12, 0
  %14 = tail call ptr @__cxa_begin_catch(ptr %13) #26
  %15 = load ptr, ptr %6, align 8
  %16 = getelementptr inbounds i8, ptr %15, i64 8
  %17 = load ptr, ptr %16, align 8
  tail call void %17(ptr noundef nonnull align 8 dereferenceable(152) %6) #26
  invoke void @__cxa_rethrow() #28
          to label %23 unwind label %18

18:                                               ; preds = %11
  %19 = landingpad { ptr, i32 }
          cleanup
  invoke void @__cxa_end_catch()
          to label %.body unwind label %20

20:                                               ; preds = %18
  %21 = landingpad { ptr, i32 }
          catch ptr null
  %22 = extractvalue { ptr, i32 } %21, 0
  tail call void @__clang_call_terminate(ptr %22) #30
  unreachable

23:                                               ; preds = %11
  unreachable

24:                                               ; preds = %8
  %25 = getelementptr inbounds i8, ptr %10, i64 8
  store i32 1, ptr %25, align 8
  %26 = getelementptr inbounds i8, ptr %10, i64 12
  store i32 1, ptr %26, align 4
  store ptr getelementptr inbounds inrange(-16, 40) ({ [7 x ptr] }, ptr @_ZTVSt15_Sp_counted_ptrIPN3gmx8internal27BasicAverageHistogramModuleELN9__gnu_cxx12_Lock_policyE2EE, i64 0, i32 0, i64 2), ptr %10, align 8
  %27 = getelementptr inbounds i8, ptr %10, i64 16
  store ptr %6, ptr %27, align 8
  store ptr %10, ptr %9, align 8
  ret void

28:                                               ; preds = %2
  %29 = landingpad { ptr, i32 }
          cleanup
  br label %.body

30:                                               ; preds = %7
  %31 = landingpad { ptr, i32 }
          cleanup
  tail call void @_ZdlPv(ptr noundef nonnull %6) #27
  br label %.body

.body:                                            ; preds = %28, %18, %30
  %.pn = phi { ptr, i32 } [ %31, %30 ], [ %29, %28 ], [ %19, %18 ]
  tail call void @_ZN3gmx19AnalysisDataStorageD1Ev(ptr noundef nonnull align 8 dereferenceable(8) %3) #26
  resume { ptr, i32 } %.pn
}